; Function Attrs: mustprogress nofree norecurse nosync nounwind willreturn memory(write, argmem: readwrite, inaccessiblemem: none) uwtable
define hidden range(i32 -108, 2) i32 @mbedtls_asn1_write_tag(ptr noundef captures(none) %0, ptr noundef %1, i8 noundef zeroext %2) local_unnamed_addr #1 {
  %4 = load ptr, ptr %0, align 8, !tbaa !5
  %5 = ptrtoint ptr %4 to i64
  %6 = ptrtoint ptr %1 to i64
  %7 = sub i64 %5, %6
  %8 = icmp slt i64 %7, 1
  br i1 %8, label %11, label %9

9:                                                ; preds = %3
  %10 = getelementptr inbounds i8, ptr %4, i64 -1
  store ptr %10, ptr %0, align 8, !tbaa !5
  store i8 %2, ptr %10, align 1, !tbaa !10
  br label %11

11:                                               ; preds = %3, %9
  %.0 = phi i32 [ 1, %9 ], [ -108, %3 ]
  ret i32 %.0
}